; Function Attrs: nounwind uwtable
define ptr @l_Array_forIn_x27Unsafe_loop___at___private_Lean_Meta_Tactic_Grind_MatchCond_0__Lean_Meta_Grind_mkMatchCondProof_x3f_go_x3f___spec__1___boxed(ptr noundef readonly captures(none) %0) local_unnamed_addr #0 {
  %2 = load ptr, ptr %0, align 8, !tbaa !10
  %3 = getelementptr inbounds nuw i8, ptr %0, i64 8
  %4 = load ptr, ptr %3, align 8, !tbaa !10
  %5 = getelementptr inbounds nuw i8, ptr %0, i64 16
  %6 = load ptr, ptr %5, align 8, !tbaa !10
  %7 = getelementptr inbounds nuw i8, ptr %0, i64 24
  %8 = load ptr, ptr %7, align 8, !tbaa !10
  %9 = getelementptr inbounds nuw i8, ptr %0, i64 32
  %10 = load ptr, ptr %9, align 8, !tbaa !10
  %11 = getelementptr inbounds nuw i8, ptr %0, i64 40
  %12 = load ptr, ptr %11, align 8, !tbaa !10
  %13 = getelementptr inbounds nuw i8, ptr %0, i64 48
  %14 = load ptr, ptr %13, align 8, !tbaa !10
  %15 = getelementptr inbounds nuw i8, ptr %0, i64 56
  %16 = load ptr, ptr %15, align 8, !tbaa !10
  %17 = getelementptr inbounds nuw i8, ptr %0, i64 64
  %18 = load ptr, ptr %17, align 8, !tbaa !10
  %19 = getelementptr inbounds nuw i8, ptr %0, i64 72
  %20 = load ptr, ptr %19, align 8, !tbaa !10
  %21 = getelementptr inbounds nuw i8, ptr %0, i64 80
  %22 = load ptr, ptr %21, align 8, !tbaa !10
  %23 = getelementptr inbounds nuw i8, ptr %0, i64 88
  %24 = load ptr, ptr %23, align 8, !tbaa !10
  %25 = getelementptr inbounds nuw i8, ptr %0, i64 96
  %26 = load ptr, ptr %25, align 8, !tbaa !10
  %27 = getelementptr inbounds nuw i8, ptr %0, i64 104
  %28 = load ptr, ptr %27, align 8, !tbaa !10
  %29 = getelementptr inbounds nuw i8, ptr %0, i64 112
  %30 = load ptr, ptr %29, align 8, !tbaa !10
  %31 = getelementptr inbounds nuw i8, ptr %0, i64 120
  %32 = load ptr, ptr %31, align 8, !tbaa !10
  %33 = getelementptr inbounds nuw i8, ptr %0, i64 128
  %34 = load ptr, ptr %33, align 8, !tbaa !10
  %35 = getelementptr inbounds nuw i8, ptr %0, i64 136
  %36 = load ptr, ptr %35, align 8, !tbaa !10
  %37 = getelementptr i8, ptr %14, i64 8
  %.val = load i64, ptr %37, align 8, !tbaa !12
  %38 = ptrtoint ptr %14 to i64
  %39 = and i64 %38, 1
  %.not = icmp eq i64 %39, 0
  br i1 %.not, label %40, label %lean_dec.exit46

40:                                               ; preds = %1
  %41 = load i32, ptr %14, align 4, !tbaa !4
  %42 = icmp sgt i32 %41, 1
  br i1 %42, label %43, label %45, !prof !9

43:                                               ; preds = %40
  %44 = add nsw i32 %41, -1
  store i32 %44, ptr %14, align 4, !tbaa !4
  br label %lean_dec.exit46

45:                                               ; preds = %40
  %.not.i = icmp eq i32 %41, 0
  br i1 %.not.i, label %lean_dec.exit46, label %46

46:                                               ; preds = %45
  tail call void @lean_dec_ref_cold(ptr noundef nonnull %14) #4
  br label %lean_dec.exit46

lean_dec.exit46:                                  ; preds = %46, %45, %43, %1
  %47 = getelementptr i8, ptr %16, i64 8
  %.val55 = load i64, ptr %47, align 8, !tbaa !12
  %48 = ptrtoint ptr %16 to i64
  %49 = and i64 %48, 1
  %.not56 = icmp eq i64 %49, 0
  br i1 %.not56, label %50, label %lean_dec.exit45

50:                                               ; preds = %lean_dec.exit46
  %51 = load i32, ptr %16, align 4, !tbaa !4
  %52 = icmp sgt i32 %51, 1
  br i1 %52, label %53, label %55, !prof !9

53:                                               ; preds = %50
  %54 = add nsw i32 %51, -1
  store i32 %54, ptr %16, align 4, !tbaa !4
  br label %lean_dec.exit45

55:                                               ; preds = %50
  %.not.i47 = icmp eq i32 %51, 0
  br i1 %.not.i47, label %lean_dec.exit45, label %56

56:                                               ; preds = %55
  tail call void @lean_dec_ref_cold(ptr noundef nonnull %16) #4
  br label %lean_dec.exit45

lean_dec.exit45:                                  ; preds = %56, %55, %53, %lean_dec.exit46
  %57 = tail call ptr @l_Array_forIn_x27Unsafe_loop___at___private_Lean_Meta_Tactic_Grind_MatchCond_0__Lean_Meta_Grind_mkMatchCondProof_x3f_go_x3f___spec__1(ptr noundef %2, ptr noundef %4, ptr noundef %6, ptr poison, ptr noundef %10, ptr noundef %12, i64 noundef %.val, i64 noundef %.val55, ptr noundef %18, ptr noundef %20, ptr noundef %22, ptr noundef %24, ptr noundef %26, ptr noundef %28, ptr noundef %30, ptr noundef %32, ptr noundef %34, ptr noundef %36)
  %58 = ptrtoint ptr %12 to i64
  %59 = and i64 %58, 1
  %.not57 = icmp eq i64 %59, 0
  br i1 %.not57, label %60, label %lean_dec.exit44

60:                                               ; preds = %lean_dec.exit45
  %61 = load i32, ptr %12, align 4, !tbaa !4
  %62 = icmp sgt i32 %61, 1
  br i1 %62, label %63, label %65, !prof !9

63:                                               ; preds = %60
  %64 = add nsw i32 %61, -1
  store i32 %64, ptr %12, align 4, !tbaa !4
  br label %lean_dec.exit44

65:                                               ; preds = %60
  %.not.i49 = icmp eq i32 %61, 0
  br i1 %.not.i49, label %lean_dec.exit44, label %66

66:                                               ; preds = %65
  tail call void @lean_dec_ref_cold(ptr noundef nonnull %12) #4
  br label %lean_dec.exit44

lean_dec.exit44:                                  ; preds = %66, %65, %63, %lean_dec.exit45
  %67 = ptrtoint ptr %8 to i64
  %68 = and i64 %67, 1
  %.not58 = icmp eq i64 %68, 0
  br i1 %.not58, label %69, label %lean_dec.exit43

69:                                               ; preds = %lean_dec.exit44
  %70 = load i32, ptr %8, align 4, !tbaa !4
  %71 = icmp sgt i32 %70, 1
  br i1 %71, label %72, label %74, !prof !9

72:                                               ; preds = %69
  %73 = add nsw i32 %70, -1
  store i32 %73, ptr %8, align 4, !tbaa !4
  br label %lean_dec.exit43

74:                                               ; preds = %69
  %.not.i51 = icmp eq i32 %70, 0
  br i1 %.not.i51, label %lean_dec.exit43, label %75

75:                                               ; preds = %74
  tail call void @lean_dec_ref_cold(ptr noundef nonnull %8) #4
  br label %lean_dec.exit43

lean_dec.exit43:                                  ; preds = %75, %74, %72, %lean_dec.exit44
  %76 = ptrtoint ptr %6 to i64
  %77 = and i64 %76, 1
  %.not59 = icmp eq i64 %77, 0
  br i1 %.not59, label %78, label %lean_dec.exit

78:                                               ; preds = %lean_dec.exit43
  %79 = load i32, ptr %6, align 4, !tbaa !4
  %80 = icmp sgt i32 %79, 1
  br i1 %80, label %81, label %83, !prof !9

81:                                               ; preds = %78
  %82 = add nsw i32 %79, -1
  store i32 %82, ptr %6, align 4, !tbaa !4
  br label %lean_dec.exit

83:                                               ; preds = %78
  %.not.i53 = icmp eq i32 %79, 0
  br i1 %.not.i53, label %lean_dec.exit, label %84

84:                                               ; preds = %83
  tail call void @lean_dec_ref_cold(ptr noundef nonnull %6) #4
  br label %lean_dec.exit

lean_dec.exit:                                    ; preds = %84, %83, %81, %lean_dec.exit43
  ret ptr %57
}